target datalayout = "e-m:e-p270:32:32-p271:32:32-p272:64:64-i64:64-i128:128-f80:128-n8:16:32:64-S128"
target triple = "x86_64-pc-linux-gnu"

%struct.SlruCtlData = type { ptr, i16, i8, i32, ptr, [64 x i8] }
%struct.pg_atomic_uint64 = type { i64 }
%struct.pg_atomic_uint32 = type { i32 }
%struct.LWLock = type { i16, %struct.pg_atomic_uint32, %struct.proclist_head }
%struct.proclist_head = type { i32, i32 }
%struct.SlruSharedData = type { i32, ptr, ptr, ptr, ptr, ptr, ptr, ptr, ptr, ptr, i32, %struct.pg_atomic_uint64, i32 }
%union.LWLockPadded = type { %struct.LWLock, [112 x i8] }
%struct.TransamVariablesData = type { i32, i32, %struct.FullTransactionId, i32, i32, i32, i32, i32, i32, i32, i32, %struct.FullTransactionId, i64, i32 }
%struct.FullTransactionId = type { i64 }

@XactCtlData = internal global %struct.SlruCtlData zeroinitializer, align 8
@TransamVariables = external global ptr, align 8

; Function Attrs: inlinehint nounwind uwtable
define internal ptr @SimpleLruGetBankLock(ptr noundef %0, i64 noundef %1) #2 {
  %3 = alloca ptr, align 8
  %4 = alloca i64, align 8
  %5 = alloca i32, align 4
  store ptr %0, ptr %3, align 8
  store i64 %1, ptr %4, align 8
  call void @llvm.lifetime.start.p0(i64 4, ptr %5) #8
  %6 = load i64, ptr %4, align 8
  %7 = load ptr, ptr %3, align 8
  %8 = getelementptr inbounds nuw %struct.SlruCtlData, ptr %7, i32 0, i32 1
  %9 = load i16, ptr %8, align 8
  %10 = zext i16 %9 to i64
  %11 = srem i64 %6, %10
  %12 = trunc i64 %11 to i32
  store i32 %12, ptr %5, align 4
  %13 = load ptr, ptr %3, align 8
  %14 = getelementptr inbounds nuw %struct.SlruCtlData, ptr %13, i32 0, i32 0
  %15 = load ptr, ptr %14, align 8
  %16 = getelementptr inbounds nuw %struct.SlruSharedData, ptr %15, i32 0, i32 7
  %17 = load ptr, ptr %16, align 8
  %18 = load i32, ptr %5, align 4
  %19 = sext i32 %18 to i64
  %20 = getelementptr inbounds %union.LWLockPadded, ptr %17, i64 %19
  call void @llvm.lifetime.end.p0(i64 4, ptr %5) #8
  ret ptr %20
}

; Function Attrs: inlinehint nounwind uwtable
define internal i64 @TransactionIdToPage(i32 noundef %0) #2 {
  %2 = alloca i32, align 4
  store i32 %0, ptr %2, align 4
  %3 = load i32, ptr %2, align 4
  %4 = zext i32 %3 to i64
  %5 = sdiv i64 %4, 32768
  ret i64 %5
}

; Function Attrs: nounwind uwtable
define dso_local void @TrimCLOG() #0 {
  %1 = alloca i32, align 4
  %2 = alloca i64, align 8
  %3 = alloca ptr, align 8
  %4 = alloca i32, align 4
  %5 = alloca i32, align 4
  %6 = alloca i32, align 4
  %7 = alloca ptr, align 8
  %8 = alloca ptr, align 8
  %9 = alloca i32, align 4
  %10 = alloca i64, align 8
  %11 = alloca ptr, align 8
  %12 = alloca ptr, align 8
  call void @llvm.lifetime.start.p0(i64 4, ptr %1) #8
  %13 = load ptr, ptr @TransamVariables, align 8
  %14 = getelementptr inbounds nuw %struct.TransamVariablesData, ptr %13, i32 0, i32 2
  %15 = getelementptr inbounds nuw %struct.FullTransactionId, ptr %14, i32 0, i32 0
  %16 = load i64, ptr %15, align 8
  %17 = trunc i64 %16 to i32
  store i32 %17, ptr %1, align 4
  call void @llvm.lifetime.start.p0(i64 8, ptr %2) #8
  %18 = load i32, ptr %1, align 4
  %19 = call i64 @TransactionIdToPage(i32 noundef %18)
  store i64 %19, ptr %2, align 8
  call void @llvm.lifetime.start.p0(i64 8, ptr %3) #8
  %20 = load i64, ptr %2, align 8
  %21 = call ptr @SimpleLruGetBankLock(ptr noundef @XactCtlData, i64 noundef %20)
  store ptr %21, ptr %3, align 8
  %22 = load ptr, ptr %3, align 8
  %23 = call zeroext i1 @LWLockAcquire(ptr noundef %22, i32 noundef 0)
  %24 = load i32, ptr %1, align 4
  %25 = urem i32 %24, 32768
  %26 = icmp ne i32 %25, 0
  br i1 %26, label %27, label %103

27:                                               ; preds = %0
  call void @llvm.lifetime.start.p0(i64 4, ptr %4) #8
  %28 = load i32, ptr %1, align 4
  %29 = urem i32 %28, 32768
  %30 = udiv i32 %29, 4
  store i32 %30, ptr %4, align 4
  call void @llvm.lifetime.start.p0(i64 4, ptr %5) #8
  %31 = load i32, ptr %1, align 4
  %32 = urem i32 %31, 4
  %33 = mul i32 %32, 2
  store i32 %33, ptr %5, align 4
  call void @llvm.lifetime.start.p0(i64 4, ptr %6) #8
  call void @llvm.lifetime.start.p0(i64 8, ptr %7) #8
  %34 = load i64, ptr %2, align 8
  %35 = load i32, ptr %1, align 4
  %36 = call i32 @SimpleLruReadPage(ptr noundef @XactCtlData, i64 noundef %34, i1 noundef zeroext false, i32 noundef %35)
  store i32 %36, ptr %6, align 4
  %37 = load ptr, ptr @XactCtlData, align 8
  %38 = getelementptr inbounds nuw %struct.SlruSharedData, ptr %37, i32 0, i32 1
  %39 = load ptr, ptr %38, align 8
  %40 = load i32, ptr %6, align 4
  %41 = sext i32 %40 to i64
  %42 = getelementptr inbounds ptr, ptr %39, i64 %41
  %43 = load ptr, ptr %42, align 8
  %44 = load i32, ptr %4, align 4
  %45 = sext i32 %44 to i64
  %46 = getelementptr inbounds i8, ptr %43, i64 %45
  store ptr %46, ptr %7, align 8
  %47 = load i32, ptr %5, align 4
  %48 = shl i32 1, %47
  %49 = sub i32 %48, 1
  %50 = load ptr, ptr %7, align 8
  %51 = load i8, ptr %50, align 1
  %52 = sext i8 %51 to i32
  %53 = and i32 %52, %49
  %54 = trunc i32 %53 to i8
  store i8 %54, ptr %50, align 1
  br label %55

55:                                               ; preds = %27
  call void @llvm.lifetime.start.p0(i64 8, ptr %8) #8
  %56 = load ptr, ptr %7, align 8
  %57 = getelementptr inbounds i8, ptr %56, i64 1
  store ptr %57, ptr %8, align 8
  call void @llvm.lifetime.start.p0(i64 4, ptr %9) #8
  store i32 0, ptr %9, align 4
  call void @llvm.lifetime.start.p0(i64 8, ptr %10) #8
  %58 = load i32, ptr %4, align 4
  %59 = sub i32 8192, %58
  %60 = sub i32 %59, 1
  %61 = sext i32 %60 to i64
  store i64 %61, ptr %10, align 8
  %62 = load ptr, ptr %8, align 8
  %63 = ptrtoint ptr %62 to i64
  %64 = and i64 %63, 7
  %65 = icmp eq i64 %64, 0
  br i1 %65, label %66, label %89

66:                                               ; preds = %55
  %67 = load i64, ptr %10, align 8
  %68 = and i64 %67, 7
  %69 = icmp eq i64 %68, 0
  br i1 %69, label %70, label %89

70:                                               ; preds = %66
  %71 = load i32, ptr %9, align 4
  %72 = icmp eq i32 %71, 0
  br i1 %72, label %73, label %89

73:                                               ; preds = %70
  %74 = load i64, ptr %10, align 8
  %75 = icmp ule i64 %74, 1024
  br i1 %75, label %76, label %89

76:                                               ; preds = %73
  call void @llvm.lifetime.start.p0(i64 8, ptr %11) #8
  %77 = load ptr, ptr %8, align 8
  store ptr %77, ptr %11, align 8
  call void @llvm.lifetime.start.p0(i64 8, ptr %12) #8
  %78 = load ptr, ptr %11, align 8
  %79 = load i64, ptr %10, align 8
  %80 = getelementptr inbounds nuw i8, ptr %78, i64 %79
  store ptr %80, ptr %12, align 8
  br label %81

81:                                               ; preds = %85, %76
  %82 = load ptr, ptr %11, align 8
  %83 = load ptr, ptr %12, align 8
  %84 = icmp ult ptr %82, %83
  br i1 %84, label %85, label %88

85:                                               ; preds = %81
  %86 = load ptr, ptr %11, align 8
  %87 = getelementptr inbounds nuw i64, ptr %86, i32 1
  store ptr %87, ptr %11, align 8
  store i64 0, ptr %86, align 8
  br label %81, !llvm.loop !10

88:                                               ; preds = %81
  call void @llvm.lifetime.end.p0(i64 8, ptr %12) #8
  call void @llvm.lifetime.end.p0(i64 8, ptr %11) #8
  br label %94

89:                                               ; preds = %73, %70, %66, %55
  %90 = load ptr, ptr %8, align 8
  %91 = load i32, ptr %9, align 4
  %92 = trunc i32 %91 to i8
  %93 = load i64, ptr %10, align 8
  call void @llvm.memset.p0.i64(ptr align 1 %90, i8 %92, i64 %93, i1 false)
  br label %94

94:                                               ; preds = %89, %88
  call void @llvm.lifetime.end.p0(i64 8, ptr %10) #8
  call void @llvm.lifetime.end.p0(i64 4, ptr %9) #8
  call void @llvm.lifetime.end.p0(i64 8, ptr %8) #8
  br label %95

95:                                               ; preds = %94
  br label %96

96:                                               ; preds = %95
  %97 = load ptr, ptr @XactCtlData, align 8
  %98 = getelementptr inbounds nuw %struct.SlruSharedData, ptr %97, i32 0, i32 3
  %99 = load ptr, ptr %98, align 8
  %100 = load i32, ptr %6, align 4
  %101 = sext i32 %100 to i64
  %102 = getelementptr inbounds i8, ptr %99, i64 %101
  store i8 1, ptr %102, align 1
  call void @llvm.lifetime.end.p0(i64 8, ptr %7) #8
  call void @llvm.lifetime.end.p0(i64 4, ptr %6) #8
  call void @llvm.lifetime.end.p0(i64 4, ptr %5) #8
  call void @llvm.lifetime.end.p0(i64 4, ptr %4) #8
  br label %103

103:                                              ; preds = %96, %0
  %104 = load ptr, ptr %3, align 8
  call void @LWLockRelease(ptr noundef %104)
  call void @llvm.lifetime.end.p0(i64 8, ptr %3) #8
  call void @llvm.lifetime.end.p0(i64 8, ptr %2) #8
  call void @llvm.lifetime.end.p0(i64 4, ptr %1) #8
  ret void
}