; Function Attrs: nounwind uwtable
define dso_local void @TrimCLOG() local_unnamed_addr #0 {
  %1 = load ptr, ptr @TransamVariables, align 8
  %2 = getelementptr inbounds nuw i8, ptr %1, i64 8
  %3 = load i64, ptr %2, align 8
  %4 = trunc i64 %3 to i32
  %5 = lshr i64 %3, 15
  %6 = and i64 %5, 131071
  %7 = load i16, ptr getelementptr inbounds nuw (i8, ptr @XactCtlData, i64 8), align 8
  %.lhs.trunc = trunc nuw nsw i64 %6 to i32
  %.rhs.trunc = zext i16 %7 to i32
  %8 = urem i32 %.lhs.trunc, %.rhs.trunc
  %9 = load ptr, ptr @XactCtlData, align 8
  %10 = getelementptr inbounds nuw i8, ptr %9, i64 56
  %11 = load ptr, ptr %10, align 8
  %12 = shl nuw nsw i32 %8, 7
  %13 = zext nneg i32 %12 to i64
  %14 = getelementptr inbounds nuw i8, ptr %11, i64 %13
  %15 = tail call zeroext i1 @LWLockAcquire(ptr noundef %14, i32 noundef 0) #9
  %16 = and i32 %4, 32767
  %.not = icmp eq i32 %16, 0
  br i1 %.not, label %59, label %17

17:                                               ; preds = %0
  %18 = lshr i32 %16, 2
  %19 = shl i32 %4, 1
  %20 = and i32 %19, 6
  %21 = tail call i32 @SimpleLruReadPage(ptr noundef nonnull @XactCtlData, i64 noundef %6, i1 noundef zeroext false, i32 noundef %4) #9
  %22 = load ptr, ptr @XactCtlData, align 8
  %23 = getelementptr inbounds nuw i8, ptr %22, i64 8
  %24 = load ptr, ptr %23, align 8
  %25 = sext i32 %21 to i64
  %26 = getelementptr inbounds ptr, ptr %24, i64 %25
  %27 = load ptr, ptr %26, align 8
  %28 = ptrtoint ptr %27 to i64
  %29 = zext nneg i32 %18 to i64
  %30 = getelementptr inbounds nuw i8, ptr %27, i64 %29
  %notmask = shl nsw i32 -1, %20
  %31 = load i8, ptr %30, align 1
  %32 = trunc nsw i32 %notmask to i8
  %33 = xor i8 %32, -1
  %34 = and i8 %31, %33
  store i8 %34, ptr %30, align 1
  %.ptr = getelementptr inbounds nuw i8, ptr %30, i64 1
  %35 = xor i32 %18, 8191
  %36 = zext nneg i32 %35 to i64
  %37 = ptrtoint ptr %.ptr to i64
  %38 = and i64 %37, 7
  %39 = icmp eq i64 %38, 0
  br i1 %39, label %40, label %54

40:                                               ; preds = %17
  %41 = and i64 %36, 7
  %42 = icmp eq i64 %41, 0
  %43 = icmp samesign ult i32 %35, 1025
  %or.cond3 = select i1 %42, i1 %43, i1 false
  br i1 %or.cond3, label %44, label %54

44:                                               ; preds = %40
  %.not35 = icmp eq i32 %18, 8191
  br i1 %.not35, label %.loopexit, label %.lr.ph.preheader

.lr.ph.preheader:                                 ; preds = %44
  %45 = add i64 %28, %29
  %46 = add i64 %45, %36
  %47 = add i64 %46, 1
  %48 = add i64 %45, 9
  %umax = tail call i64 @llvm.umax.i64(i64 %47, i64 %48)
  %49 = add i64 %umax, -2
  %50 = add i64 %28, %29
  %51 = sub i64 %49, %50
  %52 = and i64 %51, -8
  %53 = add i64 %52, 8
  tail call void @llvm.memset.p0.i64(ptr nonnull align 8 %.ptr, i8 0, i64 %53, i1 false)
  br label %.loopexit

54:                                               ; preds = %40, %17
  tail call void @llvm.memset.p0.i64(ptr nonnull align 1 %.ptr, i8 0, i64 %36, i1 false)
  br label %.loopexit

.loopexit:                                        ; preds = %.lr.ph.preheader, %44, %54
  %55 = load ptr, ptr @XactCtlData, align 8
  %56 = getelementptr inbounds nuw i8, ptr %55, i64 24
  %57 = load ptr, ptr %56, align 8
  %58 = getelementptr inbounds i8, ptr %57, i64 %25
  store i8 1, ptr %58, align 1
  br label %59

59:                                               ; preds = %.loopexit, %0
  tail call void @LWLockRelease(ptr noundef %14) #9
  ret void
}